target datalayout = "e-m:e-p270:32:32-p271:32:32-p272:64:64-i64:64-i128:128-f80:128-n8:16:32:64-S128"
target triple = "x86_64-pc-linux-gnu"

; Function Attrs: nounwind uwtable
define dso_local i32 @WPACKET_memset(ptr noundef %0, i32 noundef %1, i64 noundef %2) #0 {
  %4 = alloca i32, align 4
  %5 = alloca ptr, align 8
  %6 = alloca i32, align 4
  %7 = alloca i64, align 8
  %8 = alloca ptr, align 8
  %9 = alloca i32, align 4
  store ptr %0, ptr %5, align 8, !tbaa !4
  store i32 %1, ptr %6, align 4, !tbaa !35
  store i64 %2, ptr %7, align 8, !tbaa !9
  call void @llvm.lifetime.start.p0(i64 8, ptr %8) #7
  %10 = load i64, ptr %7, align 8, !tbaa !9
  %11 = icmp eq i64 %10, 0
  br i1 %11, label %12, label %13

12:                                               ; preds = %3
  store i32 1, ptr %4, align 4
  store i32 1, ptr %9, align 4
  br label %28

13:                                               ; preds = %3
  %14 = load ptr, ptr %5, align 8, !tbaa !4
  %15 = load i64, ptr %7, align 8, !tbaa !9
  %16 = call i32 @WPACKET_allocate_bytes(ptr noundef %14, i64 noundef %15, ptr noundef %8)
  %17 = icmp ne i32 %16, 0
  br i1 %17, label %19, label %18

18:                                               ; preds = %13
  store i32 0, ptr %4, align 4
  store i32 1, ptr %9, align 4
  br label %28

19:                                               ; preds = %13
  %20 = load ptr, ptr %8, align 8, !tbaa !25
  %21 = icmp ne ptr %20, null
  br i1 %21, label %22, label %27

22:                                               ; preds = %19
  %23 = load ptr, ptr %8, align 8, !tbaa !25
  %24 = load i32, ptr %6, align 4, !tbaa !35
  %25 = trunc i32 %24 to i8
  %26 = load i64, ptr %7, align 8, !tbaa !9
  call void @llvm.memset.p0.i64(ptr align 1 %23, i8 %25, i64 %26, i1 false)
  br label %27

27:                                               ; preds = %22, %19
  store i32 1, ptr %4, align 4
  store i32 1, ptr %9, align 4
  br label %28

28:                                               ; preds = %27, %18, %12
  call void @llvm.lifetime.end.p0(i64 8, ptr %8) #7
  %29 = load i32, ptr %4, align 4
  ret i32 %29
}