; Function Attrs: nounwind uwtable
define dso_local range(i32 0, 2) i32 @WPACKET_memset(ptr noundef captures(none) %0, i32 noundef %1, i64 noundef %2) local_unnamed_addr #0 {
  %4 = alloca ptr, align 8
  call void @llvm.lifetime.start.p0(i64 8, ptr nonnull %4) #12
  %5 = icmp eq i64 %2, 0
  br i1 %5, label %12, label %6

6:                                                ; preds = %3
  %7 = call i32 @WPACKET_allocate_bytes(ptr noundef %0, i64 noundef %2, ptr noundef nonnull %4)
  %.not = icmp eq i32 %7, 0
  br i1 %.not, label %12, label %8

8:                                                ; preds = %6
  %9 = load ptr, ptr %4, align 8, !tbaa !23
  %.not7 = icmp eq ptr %9, null
  br i1 %.not7, label %12, label %10

10:                                               ; preds = %8
  %11 = trunc i32 %1 to i8
  call void @llvm.memset.p0.i64(ptr nonnull align 1 %9, i8 %11, i64 %2, i1 false)
  br label %12

12:                                               ; preds = %8, %10, %6, %3
  %.0 = phi i32 [ 1, %3 ], [ 0, %6 ], [ 1, %10 ], [ 1, %8 ]
  call void @llvm.lifetime.end.p0(i64 8, ptr nonnull %4) #12
  ret i32 %.0
}